; Function Attrs: mustprogress nounwind uwtable
define dso_local void @_ZN4llvm13MCELFStreamer16setAttributeItemEjNS_9StringRefEb(ptr noundef nonnull align 8 dereferenceable(6601) %0, i32 noundef %1, ptr %2, i64 %3, i1 noundef zeroext %4) local_unnamed_addr #0 align 2 {
  %6 = alloca %"struct.std::__cxx11::basic_string<char>::__sv_wrapper", align 8
  %7 = alloca %"struct.std::__cxx11::basic_string<char>::__sv_wrapper", align 8
  %8 = alloca %"class.std::__cxx11::basic_string", align 8
  %9 = alloca %"class.std::allocator.54", align 1
  %10 = alloca %"struct.llvm::MCELFStreamer::AttributeItem", align 8
  %11 = alloca %"class.std::allocator.54", align 1
  %12 = getelementptr inbounds nuw i8, ptr %0, i64 424
  %13 = load ptr, ptr %12, align 8
  %14 = tail call noundef i64 @_ZNK4llvm15SmallVectorBaseIjE4sizeEv(ptr noundef nonnull align 8 dereferenceable(16) %12) #15
  %15 = getelementptr inbounds %"struct.llvm::MCELFStreamer::AttributeItem", ptr %13, i64 %14
  %.not11.i = icmp eq i64 %14, 0
  br i1 %.not11.i, label %.loopexit, label %.lr.ph.i

.lr.ph.i:                                         ; preds = %5, %19
  %.01012.i = phi ptr [ %20, %19 ], [ %13, %5 ]
  %16 = getelementptr inbounds nuw i8, ptr %.01012.i, i64 4
  %17 = load i32, ptr %16, align 4
  %18 = icmp eq i32 %17, %1
  br i1 %18, label %_ZN4llvm13MCELFStreamer16getAttributeItemEj.exit, label %19

19:                                               ; preds = %.lr.ph.i
  %20 = getelementptr inbounds i8, ptr %.01012.i, i64 48
  %.not.i = icmp eq ptr %20, %15
  br i1 %.not.i, label %.loopexit, label %.lr.ph.i

_ZN4llvm13MCELFStreamer16getAttributeItemEj.exit: ; preds = %.lr.ph.i
  br i1 %4, label %21, label %39

21:                                               ; preds = %_ZN4llvm13MCELFStreamer16getAttributeItemEj.exit
  store i32 2, ptr %.01012.i, align 8
  call void @_ZNSaIcEC1Ev(ptr noundef nonnull align 1 dereferenceable(1) %9) #15
  call void @llvm.lifetime.start.p0(i64 16, ptr nonnull %7)
  %22 = call { i64, ptr } @_ZNSt7__cxx1112basic_stringIcSt11char_traitsIcESaIcEE17_S_to_string_viewESt17basic_string_viewIcS2_E(i64 %3, ptr %2) #15
  %23 = extractvalue { i64, ptr } %22, 0
  %24 = extractvalue { i64, ptr } %22, 1
  call void @_ZNSt7__cxx1112basic_stringIcSt11char_traitsIcESaIcEE12__sv_wrapperC1ESt17basic_string_viewIcS2_E(ptr noundef nonnull align 8 dereferenceable(16) %7, i64 %23, ptr %24) #15
  %25 = load i64, ptr %7, align 8
  %26 = getelementptr inbounds nuw i8, ptr %7, i64 8
  %27 = load ptr, ptr %26, align 8
  call void @_ZNSt7__cxx1112basic_stringIcSt11char_traitsIcESaIcEEC2ENS4_12__sv_wrapperERKS3_(ptr noundef nonnull align 8 dereferenceable(32) %8, i64 %25, ptr %27, ptr noundef nonnull align 1 dereferenceable(1) %9) #15
  call void @llvm.lifetime.end.p0(i64 16, ptr nonnull %7)
  %28 = getelementptr inbounds nuw i8, ptr %.01012.i, i64 16
  %29 = call noundef nonnull align 8 dereferenceable(32) ptr @_ZNSt7__cxx1112basic_stringIcSt11char_traitsIcESaIcEEaSEOS4_(ptr noundef nonnull align 8 dereferenceable(32) %28, ptr noundef nonnull align 8 dereferenceable(32) %8) #15
  call void @_ZNSt7__cxx1112basic_stringIcSt11char_traitsIcESaIcEED1Ev(ptr noundef nonnull align 8 dereferenceable(32) %8) #15
  call void @_ZNSaIcED1Ev(ptr noundef nonnull align 1 dereferenceable(1) %9) #15
  br label %39

.loopexit:                                        ; preds = %19, %5
  store i32 2, ptr %10, align 8
  %30 = getelementptr inbounds nuw i8, ptr %10, i64 4
  store i32 %1, ptr %30, align 4
  %31 = getelementptr inbounds nuw i8, ptr %10, i64 8
  store i32 0, ptr %31, align 8
  %32 = getelementptr inbounds nuw i8, ptr %10, i64 16
  call void @_ZNSaIcEC1Ev(ptr noundef nonnull align 1 dereferenceable(1) %11) #15
  call void @llvm.lifetime.start.p0(i64 16, ptr nonnull %6)
  %33 = call { i64, ptr } @_ZNSt7__cxx1112basic_stringIcSt11char_traitsIcESaIcEE17_S_to_string_viewESt17basic_string_viewIcS2_E(i64 %3, ptr %2) #15
  %34 = extractvalue { i64, ptr } %33, 0
  %35 = extractvalue { i64, ptr } %33, 1
  call void @_ZNSt7__cxx1112basic_stringIcSt11char_traitsIcESaIcEE12__sv_wrapperC1ESt17basic_string_viewIcS2_E(ptr noundef nonnull align 8 dereferenceable(16) %6, i64 %34, ptr %35) #15
  %36 = load i64, ptr %6, align 8
  %37 = getelementptr inbounds nuw i8, ptr %6, i64 8
  %38 = load ptr, ptr %37, align 8
  call void @_ZNSt7__cxx1112basic_stringIcSt11char_traitsIcESaIcEEC2ENS4_12__sv_wrapperERKS3_(ptr noundef nonnull align 8 dereferenceable(32) %32, i64 %36, ptr %38, ptr noundef nonnull align 1 dereferenceable(1) %11) #15
  call void @llvm.lifetime.end.p0(i64 16, ptr nonnull %6)
  call void @_ZNSaIcED1Ev(ptr noundef nonnull align 1 dereferenceable(1) %11) #15
  call void @_ZN4llvm23SmallVectorTemplateBaseINS_13MCELFStreamer13AttributeItemELb0EE9push_backERKS2_(ptr noundef nonnull align 8 dereferenceable(16) %12, ptr noundef nonnull align 8 dereferenceable(48) %10)
  call void @_ZNSt7__cxx1112basic_stringIcSt11char_traitsIcESaIcEED1Ev(ptr noundef nonnull align 8 dereferenceable(32) %32) #15
  br label %39

39:                                               ; preds = %_ZN4llvm13MCELFStreamer16getAttributeItemEj.exit, %.loopexit, %21
  ret void
}